; Function Attrs: mustprogress uwtable
define hidden void @_ZN5nlsat20interval_set_manager3delEPNS_12interval_setE(ptr noundef nonnull readonly align 8 captures(none) dereferenceable(28) %0, ptr noundef %1) local_unnamed_addr #4 align 2 {
  %3 = icmp eq ptr %1, null
  br i1 %3, label %18, label %4

4:                                                ; preds = %2
  %5 = load i32, ptr %1, align 8, !tbaa !18
  %6 = shl i32 %5, 5
  %7 = or disjoint i32 %6, 8
  %.not = icmp eq i32 %5, 0
  br i1 %.not, label %._crit_edge, label %.lr.ph

.lr.ph:                                           ; preds = %4
  %8 = getelementptr inbounds nuw i8, ptr %1, i64 8
  %wide.trip.count = zext i32 %5 to i64
  br label %12

._crit_edge:                                      ; preds = %12, %4
  %9 = getelementptr inbounds nuw i8, ptr %0, i64 8
  %10 = load ptr, ptr %9, align 8, !tbaa !20
  %11 = zext i32 %7 to i64
  tail call void @_ZN22small_object_allocator10deallocateEmPv(ptr noundef nonnull align 8 dereferenceable(520) %10, i64 noundef %11, ptr noundef nonnull %1)
  br label %18

12:                                               ; preds = %.lr.ph, %12
  %indvars.iv = phi i64 [ 0, %.lr.ph ], [ %indvars.iv.next, %12 ]
  %13 = load ptr, ptr %0, align 8, !tbaa !23
  %14 = getelementptr inbounds nuw [0 x %"struct.nlsat::interval"], ptr %8, i64 0, i64 %indvars.iv
  %15 = getelementptr inbounds nuw i8, ptr %14, i64 16
  tail call void @_ZN17algebraic_numbers7manager3delERNS_4anumE(ptr noundef nonnull align 8 dereferenceable(17) %13, ptr noundef nonnull align 8 dereferenceable(8) %15)
  %16 = load ptr, ptr %0, align 8, !tbaa !23
  %17 = getelementptr inbounds nuw i8, ptr %14, i64 24
  tail call void @_ZN17algebraic_numbers7manager3delERNS_4anumE(ptr noundef nonnull align 8 dereferenceable(17) %16, ptr noundef nonnull align 8 dereferenceable(8) %17)
  %indvars.iv.next = add nuw nsw i64 %indvars.iv, 1
  %exitcond.not = icmp eq i64 %indvars.iv.next, %wide.trip.count
  br i1 %exitcond.not, label %._crit_edge, label %12, !llvm.loop !24

18:                                               ; preds = %2, %._crit_edge
  ret void
}